; Function Attrs: mustprogress nofree norecurse nosync nounwind memory(readwrite, inaccessiblemem: none) uwtable
define hidden void @_ZN2dt6solver14final_check_stD2Ev(ptr noundef nonnull readonly align 8 captures(none) dereferenceable(8) %0) unnamed_addr #11 align 2 personality ptr @__gxx_personality_v0 {
  %2 = load ptr, ptr %0, align 8, !tbaa !460
  %3 = getelementptr inbounds nuw i8, ptr %2, i64 392
  %4 = load ptr, ptr %3, align 8, !tbaa !432
  %5 = icmp eq ptr %4, null
  br i1 %5, label %._crit_edge.i, label %_ZN6vectorIPN3euf5enodeELb0EjE3endEv.exit.i

_ZN6vectorIPN3euf5enodeELb0EjE3endEv.exit.i:      ; preds = %1
  %6 = getelementptr inbounds i8, ptr %4, i64 -4
  %7 = load i32, ptr %6, align 4, !tbaa !387
  %8 = zext i32 %7 to i64
  %9 = getelementptr inbounds nuw ptr, ptr %4, i64 %8
  %.not21.i = icmp eq i32 %7, 0
  br i1 %.not21.i, label %._crit_edge.i, label %.lr.ph.i

._crit_edge.i:                                    ; preds = %.lr.ph.i, %_ZN6vectorIPN3euf5enodeELb0EjE3endEv.exit.i, %1
  %10 = getelementptr inbounds nuw i8, ptr %2, i64 400
  %11 = load ptr, ptr %10, align 8, !tbaa !432
  %12 = icmp eq ptr %11, null
  br i1 %12, label %._crit_edge26.i, label %_ZN6vectorIPN3euf5enodeELb0EjE3endEv.exit18.i

_ZN6vectorIPN3euf5enodeELb0EjE3endEv.exit18.i:    ; preds = %._crit_edge.i
  %13 = getelementptr inbounds i8, ptr %11, i64 -4
  %14 = load i32, ptr %13, align 4, !tbaa !387
  %15 = zext i32 %14 to i64
  %16 = getelementptr inbounds nuw ptr, ptr %11, i64 %15
  %.not1623.i = icmp eq i32 %14, 0
  br i1 %.not1623.i, label %._crit_edge26.i, label %.lr.ph25.i

.lr.ph.i:                                         ; preds = %_ZN6vectorIPN3euf5enodeELb0EjE3endEv.exit.i, %.lr.ph.i
  %.022.i = phi ptr [ %19, %.lr.ph.i ], [ %4, %_ZN6vectorIPN3euf5enodeELb0EjE3endEv.exit.i ]
  %17 = load ptr, ptr %.022.i, align 8, !tbaa !451
  %18 = getelementptr inbounds nuw i8, ptr %17, i64 8
  store i8 0, ptr %18, align 8, !tbaa !462
  %19 = getelementptr inbounds nuw i8, ptr %.022.i, i64 8
  %.not.i = icmp eq ptr %19, %9
  br i1 %.not.i, label %._crit_edge.i, label %.lr.ph.i

._crit_edge26.i:                                  ; preds = %.lr.ph25.i, %_ZN6vectorIPN3euf5enodeELb0EjE3endEv.exit18.i, %._crit_edge.i
  br i1 %5, label %_ZN6vectorIPN3euf5enodeELb0EjE5resetEv.exit.i, label %20

20:                                               ; preds = %._crit_edge26.i
  %21 = getelementptr inbounds i8, ptr %4, i64 -4
  store i32 0, ptr %21, align 4, !tbaa !387
  br label %_ZN6vectorIPN3euf5enodeELb0EjE5resetEv.exit.i

_ZN6vectorIPN3euf5enodeELb0EjE5resetEv.exit.i:    ; preds = %20, %._crit_edge26.i
  br i1 %12, label %_ZN2dt6solver10clear_markEv.exit, label %22

22:                                               ; preds = %_ZN6vectorIPN3euf5enodeELb0EjE5resetEv.exit.i
  %23 = getelementptr inbounds i8, ptr %11, i64 -4
  store i32 0, ptr %23, align 4, !tbaa !387
  br label %_ZN2dt6solver10clear_markEv.exit

.lr.ph25.i:                                       ; preds = %_ZN6vectorIPN3euf5enodeELb0EjE3endEv.exit18.i, %.lr.ph25.i
  %.01524.i = phi ptr [ %26, %.lr.ph25.i ], [ %11, %_ZN6vectorIPN3euf5enodeELb0EjE3endEv.exit18.i ]
  %24 = load ptr, ptr %.01524.i, align 8, !tbaa !451
  %25 = getelementptr inbounds nuw i8, ptr %24, i64 9
  store i8 0, ptr %25, align 1, !tbaa !468
  %26 = getelementptr inbounds nuw i8, ptr %.01524.i, i64 8
  %.not16.i = icmp eq ptr %26, %16
  br i1 %.not16.i, label %._crit_edge26.i, label %.lr.ph25.i

_ZN2dt6solver10clear_markEv.exit:                 ; preds = %22, %_ZN6vectorIPN3euf5enodeELb0EjE5resetEv.exit.i
  ret void
}